target datalayout = "e-m:e-p270:32:32-p271:32:32-p272:64:64-i64:64-i128:128-f80:128-n8:16:32:64-S128"
target triple = "x86_64-pc-linux-gnu"

%"struct.llvm::X86AddressMode" = type <{ i32, %union.anon.769, i32, i32, i32, [4 x i8], ptr, i32, [4 x i8] }>
%union.anon.769 = type { i32 }

; Function Attrs: mustprogress nounwind uwtable
define linkonce_odr hidden void @_ZN4llvm14X86AddressModeC2Ev(ptr noundef nonnull align 8 dereferenceable(36) %0) unnamed_addr #0 comdat align 2 {
  %2 = alloca ptr, align 8
  store ptr %0, ptr %2, align 8
  %3 = load ptr, ptr %2, align 8
  %4 = getelementptr inbounds nuw %"struct.llvm::X86AddressMode", ptr %3, i32 0, i32 0
  store i32 0, ptr %4, align 8
  %5 = getelementptr inbounds nuw %"struct.llvm::X86AddressMode", ptr %3, i32 0, i32 2
  store i32 1, ptr %5, align 8
  %6 = getelementptr inbounds nuw %"struct.llvm::X86AddressMode", ptr %3, i32 0, i32 3
  store i32 0, ptr %6, align 4
  %7 = getelementptr inbounds nuw %"struct.llvm::X86AddressMode", ptr %3, i32 0, i32 4
  store i32 0, ptr %7, align 8
  %8 = getelementptr inbounds nuw %"struct.llvm::X86AddressMode", ptr %3, i32 0, i32 6
  store ptr null, ptr %8, align 8
  %9 = getelementptr inbounds nuw %"struct.llvm::X86AddressMode", ptr %3, i32 0, i32 7
  store i32 0, ptr %9, align 8
  %10 = getelementptr inbounds nuw %"struct.llvm::X86AddressMode", ptr %3, i32 0, i32 1
  store i32 0, ptr %10, align 4
  ret void
}

; Function Attrs: mustprogress nounwind uwtable
define dso_local void @_ZNK4llvm12X86InstrInfo21getFrameIndexOperandsERNS_15SmallVectorImplINS_14MachineOperandEEEi(ptr noundef nonnull align 8 dereferenceable(416) %0, ptr noundef nonnull align 8 dereferenceable(16) %1, i32 noundef %2) unnamed_addr #0 align 2 {
  %4 = alloca ptr, align 8
  %5 = alloca ptr, align 8
  %6 = alloca i32, align 4
  %7 = alloca %"struct.llvm::X86AddressMode", align 8
  store ptr %0, ptr %4, align 8
  store ptr %1, ptr %5, align 8
  store i32 %2, ptr %6, align 4
  call void @_ZN4llvm14X86AddressModeC2Ev(ptr noundef nonnull align 8 dereferenceable(36) %7)
  %8 = getelementptr inbounds nuw %"struct.llvm::X86AddressMode", ptr %7, i32 0, i32 0
  store i32 1, ptr %8, align 8
  %9 = load i32, ptr %6, align 4
  %10 = getelementptr inbounds nuw %"struct.llvm::X86AddressMode", ptr %7, i32 0, i32 1
  store i32 %9, ptr %10, align 4
  %11 = load ptr, ptr %5, align 8
  call void @_ZN4llvm14X86AddressMode14getFullAddressERNS_15SmallVectorImplINS_14MachineOperandEEE(ptr noundef nonnull align 8 dereferenceable(36) %7, ptr noundef nonnull align 8 dereferenceable(16) %11)
  ret void
}