; Function Attrs: mustprogress nounwind uwtable
define dso_local void @_ZNK4llvm12X86InstrInfo21getFrameIndexOperandsERNS_15SmallVectorImplINS_14MachineOperandEEEi(ptr nonnull readnone align 8 captures(none) %0, ptr noundef nonnull align 8 dereferenceable(16) %1, i32 noundef %2) unnamed_addr #1 align 2 {
  %4 = alloca %"struct.llvm::X86AddressMode", align 8
  %5 = getelementptr inbounds nuw i8, ptr %4, i64 8
  store i32 1, ptr %5, align 8
  %6 = getelementptr inbounds nuw i8, ptr %4, i64 12
  store i32 0, ptr %6, align 4
  %7 = getelementptr inbounds nuw i8, ptr %4, i64 16
  store i32 0, ptr %7, align 8
  %8 = getelementptr inbounds nuw i8, ptr %4, i64 24
  store ptr null, ptr %8, align 8
  %9 = getelementptr inbounds nuw i8, ptr %4, i64 32
  store i32 0, ptr %9, align 8
  %10 = getelementptr inbounds nuw i8, ptr %4, i64 4
  store i32 1, ptr %4, align 8
  store i32 %2, ptr %10, align 4
  call void @_ZN4llvm14X86AddressMode14getFullAddressERNS_15SmallVectorImplINS_14MachineOperandEEE(ptr noundef nonnull align 8 dereferenceable(36) %4, ptr noundef nonnull align 8 dereferenceable(16) %1)
  ret void
}